; Function Attrs: mustprogress uwtable
define void @_ZN3net30QuicMultipathSentPacketManager20OnApplicationLimitedEv(ptr noundef nonnull readonly align 8 captures(none) dereferenceable(40) %0) unnamed_addr #0 align 2 {
  %2 = getelementptr inbounds nuw i8, ptr %0, i64 8
  %3 = load ptr, ptr %2, align 8, !tbaa !20
  %4 = getelementptr inbounds nuw i8, ptr %0, i64 16
  %5 = load ptr, ptr %4, align 8, !tbaa !20
  %.not910 = icmp eq ptr %3, %5
  br i1 %.not910, label %._crit_edge, label %.lr.ph

._crit_edge:                                      ; preds = %15, %1
  ret void

.lr.ph:                                           ; preds = %1, %15
  %.sroa.06.011 = phi ptr [ %16, %15 ], [ %3, %1 ]
  %6 = load ptr, ptr %.sroa.06.011, align 8, !tbaa !21
  %7 = icmp eq ptr %6, null
  br i1 %7, label %15, label %8

8:                                                ; preds = %.lr.ph
  %9 = getelementptr inbounds nuw i8, ptr %.sroa.06.011, i64 8
  %10 = load i32, ptr %9, align 8, !tbaa !25
  %.not = icmp eq i32 %10, 0
  br i1 %.not, label %11, label %15

11:                                               ; preds = %8
  %12 = load ptr, ptr %6, align 8, !tbaa !3
  %13 = getelementptr inbounds nuw i8, ptr %12, i64 304
  %14 = load ptr, ptr %13, align 8
  tail call void %14(ptr noundef nonnull align 8 dereferenceable(8) %6)
  br label %15

15:                                               ; preds = %.lr.ph, %8, %11
  %16 = getelementptr inbounds nuw i8, ptr %.sroa.06.011, i64 16
  %.not9 = icmp eq ptr %16, %5
  br i1 %.not9, label %._crit_edge, label %.lr.ph
}